target datalayout = "e-m:e-p270:32:32-p271:32:32-p272:64:64-i64:64-i128:128-f80:128-n8:16:32:64-S128"
target triple = "x86_64-pc-linux-gnu"

%struct.SDL_CameraDriver = type { ptr, ptr, %struct.SDL_CameraDriverImpl, ptr, ptr, %struct.SDL_PendingCameraEvent, ptr, %struct.SDL_AtomicInt, %struct.SDL_AtomicInt }
%struct.SDL_CameraDriverImpl = type { ptr, ptr, ptr, ptr, ptr, ptr, ptr, ptr, i8 }
%struct.SDL_PendingCameraEvent = type { i32, i32, ptr }
%struct.SDL_AtomicInt = type { i32 }
%struct.SDL_Camera = type { ptr, ptr, i32, %struct.SDL_AtomicInt, ptr, ptr, ptr, ptr, i32, %struct.SDL_CameraSpec, %struct.SDL_CameraSpec, i32, ptr, i32, i64, i64, ptr, ptr, [8 x %struct.SurfaceList], %struct.SurfaceList, %struct.SurfaceList, %struct.SurfaceList, ptr, i32, i8, %struct.SDL_AtomicInt, %struct.SDL_AtomicInt, ptr, i32, i32, ptr }
%struct.SDL_CameraSpec = type { i32, i32, i32, i32, i32, i32 }
%struct.SurfaceList = type { ptr, i64, ptr }

@camera_driver = internal global %struct.SDL_CameraDriver zeroinitializer, align 8

; Function Attrs: nounwind uwtable
define hidden void @UnrefPhysicalCamera(ptr noundef %0) #0 {
  %2 = alloca ptr, align 8
  store ptr %0, ptr %2, align 8
  %3 = load ptr, ptr %2, align 8
  %4 = getelementptr inbounds nuw %struct.SDL_Camera, ptr %3, i32 0, i32 3
  %5 = call i32 @SDL_AddAtomicInt_REAL(ptr noundef %4, i32 noundef -1)
  %6 = icmp eq i32 %5, 1
  br i1 %6, label %7, label %20

7:                                                ; preds = %1
  %8 = load ptr, ptr getelementptr inbounds nuw (%struct.SDL_CameraDriver, ptr @camera_driver, i32 0, i32 3), align 8
  call void @SDL_LockRWLockForWriting_REAL(ptr noundef %8)
  %9 = load ptr, ptr getelementptr inbounds nuw (%struct.SDL_CameraDriver, ptr @camera_driver, i32 0, i32 4), align 8
  %10 = load ptr, ptr %2, align 8
  %11 = getelementptr inbounds nuw %struct.SDL_Camera, ptr %10, i32 0, i32 11
  %12 = load i32, ptr %11, align 4
  %13 = zext i32 %12 to i64
  %14 = inttoptr i64 %13 to ptr
  %15 = call zeroext i1 @SDL_RemoveFromHashTable(ptr noundef %9, ptr noundef %14)
  br i1 %15, label %16, label %18

16:                                               ; preds = %7
  %17 = call i32 @SDL_AddAtomicInt_REAL(ptr noundef getelementptr inbounds nuw (%struct.SDL_CameraDriver, ptr @camera_driver, i32 0, i32 7), i32 noundef -1)
  br label %18

18:                                               ; preds = %16, %7
  %19 = load ptr, ptr getelementptr inbounds nuw (%struct.SDL_CameraDriver, ptr @camera_driver, i32 0, i32 3), align 8
  call void @SDL_UnlockRWLock_REAL(ptr noundef %19)
  br label %20

20:                                               ; preds = %18, %1
  ret void
}

; Function Attrs: nounwind uwtable
define hidden void @RefPhysicalCamera(ptr noundef %0) #0 {
  %2 = alloca ptr, align 8
  store ptr %0, ptr %2, align 8
  %3 = load ptr, ptr %2, align 8
  %4 = getelementptr inbounds nuw %struct.SDL_Camera, ptr %3, i32 0, i32 3
  %5 = call i32 @SDL_AddAtomicInt_REAL(ptr noundef %4, i32 noundef 1)
  ret void
}

; Function Attrs: nounwind uwtable
define internal void @ReleaseCamera(ptr noundef %0) #0 {
  %2 = alloca ptr, align 8
  store ptr %0, ptr %2, align 8
  %3 = load ptr, ptr %2, align 8
  %4 = icmp ne ptr %3, null
  br i1 %4, label %5, label %10

5:                                                ; preds = %1
  %6 = load ptr, ptr %2, align 8
  %7 = getelementptr inbounds nuw %struct.SDL_Camera, ptr %6, i32 0, i32 0
  %8 = load ptr, ptr %7, align 8
  call void @SDL_UnlockMutex_REAL(ptr noundef %8)
  %9 = load ptr, ptr %2, align 8
  call void @UnrefPhysicalCamera(ptr noundef %9)
  br label %10

10:                                               ; preds = %5, %1
  ret void
}

; Function Attrs: nounwind uwtable
define internal void @ObtainPhysicalCameraObj(ptr noundef %0) #0 {
  %2 = alloca ptr, align 8
  store ptr %0, ptr %2, align 8
  %3 = load ptr, ptr %2, align 8
  %4 = icmp ne ptr %3, null
  br i1 %4, label %5, label %10

5:                                                ; preds = %1
  %6 = load ptr, ptr %2, align 8
  call void @RefPhysicalCamera(ptr noundef %6)
  %7 = load ptr, ptr %2, align 8
  %8 = getelementptr inbounds nuw %struct.SDL_Camera, ptr %7, i32 0, i32 0
  %9 = load ptr, ptr %8, align 8
  call void @SDL_LockMutex_REAL(ptr noundef %9)
  br label %10

10:                                               ; preds = %5, %1
  ret void
}

; Function Attrs: nounwind uwtable
define hidden void @SDL_CameraPermissionOutcome(ptr noundef %0, i1 noundef zeroext %1) #0 {
  %3 = alloca ptr, align 8
  %4 = alloca i8, align 1
  %5 = alloca %struct.SDL_PendingCameraEvent, align 8
  %6 = alloca ptr, align 8
  %7 = alloca i32, align 4
  %8 = alloca ptr, align 8
  store ptr %0, ptr %3, align 8
  %9 = zext i1 %1 to i8
  store i8 %9, ptr %4, align 1
  %10 = load ptr, ptr %3, align 8
  %11 = icmp ne ptr %10, null
  br i1 %11, label %13, label %12

12:                                               ; preds = %2
  br label %69

13:                                               ; preds = %2
  call void @llvm.lifetime.start.p0(i64 16, ptr %5) #7
  %14 = getelementptr inbounds nuw %struct.SDL_PendingCameraEvent, ptr %5, i32 0, i32 2
  store ptr null, ptr %14, align 8
  call void @llvm.lifetime.start.p0(i64 8, ptr %6) #7
  store ptr %5, ptr %6, align 8
  call void @llvm.lifetime.start.p0(i64 4, ptr %7) #7
  %15 = load i8, ptr %4, align 1, !range !5, !noundef !6
  %16 = trunc i8 %15 to i1
  %17 = select i1 %16, i32 1, i32 -1
  store i32 %17, ptr %7, align 4
  %18 = load ptr, ptr %3, align 8
  call void @ObtainPhysicalCameraObj(ptr noundef %18)
  %19 = load ptr, ptr %3, align 8
  %20 = getelementptr inbounds nuw %struct.SDL_Camera, ptr %19, i32 0, i32 29
  %21 = load i32, ptr %20, align 4
  %22 = load i32, ptr %7, align 4
  %23 = icmp ne i32 %21, %22
  br i1 %23, label %24, label %49

24:                                               ; preds = %13
  %25 = load i32, ptr %7, align 4
  %26 = load ptr, ptr %3, align 8
  %27 = getelementptr inbounds nuw %struct.SDL_Camera, ptr %26, i32 0, i32 29
  store i32 %25, ptr %27, align 4
  call void @llvm.lifetime.start.p0(i64 8, ptr %8) #7
  %28 = call noalias ptr @SDL_malloc_REAL(i64 noundef 16)
  store ptr %28, ptr %8, align 8
  %29 = load ptr, ptr %8, align 8
  %30 = icmp ne ptr %29, null
  br i1 %30, label %31, label %48

31:                                               ; preds = %24
  %32 = load i8, ptr %4, align 1, !range !5, !noundef !6
  %33 = trunc i8 %32 to i1
  %34 = select i1 %33, i32 5122, i32 5123
  %35 = load ptr, ptr %8, align 8
  %36 = getelementptr inbounds nuw %struct.SDL_PendingCameraEvent, ptr %35, i32 0, i32 0
  store i32 %34, ptr %36, align 8
  %37 = load ptr, ptr %3, align 8
  %38 = getelementptr inbounds nuw %struct.SDL_Camera, ptr %37, i32 0, i32 11
  %39 = load i32, ptr %38, align 4
  %40 = load ptr, ptr %8, align 8
  %41 = getelementptr inbounds nuw %struct.SDL_PendingCameraEvent, ptr %40, i32 0, i32 1
  store i32 %39, ptr %41, align 4
  %42 = load ptr, ptr %8, align 8
  %43 = getelementptr inbounds nuw %struct.SDL_PendingCameraEvent, ptr %42, i32 0, i32 2
  store ptr null, ptr %43, align 8
  %44 = load ptr, ptr %8, align 8
  %45 = load ptr, ptr %6, align 8
  %46 = getelementptr inbounds nuw %struct.SDL_PendingCameraEvent, ptr %45, i32 0, i32 2
  store ptr %44, ptr %46, align 8
  %47 = load ptr, ptr %8, align 8
  store ptr %47, ptr %6, align 8
  br label %48

48:                                               ; preds = %31, %24
  call void @llvm.lifetime.end.p0(i64 8, ptr %8) #7
  br label %49

49:                                               ; preds = %48, %13
  %50 = load ptr, ptr %3, align 8
  call void @ReleaseCamera(ptr noundef %50)
  %51 = getelementptr inbounds nuw %struct.SDL_PendingCameraEvent, ptr %5, i32 0, i32 2
  %52 = load ptr, ptr %51, align 8
  %53 = icmp ne ptr %52, null
  br i1 %53, label %54, label %68

54:                                               ; preds = %49
  %55 = load ptr, ptr getelementptr inbounds nuw (%struct.SDL_CameraDriver, ptr @camera_driver, i32 0, i32 3), align 8
  call void @SDL_LockRWLockForWriting_REAL(ptr noundef %55)
  br label %56

56:                                               ; preds = %54
  br label %57

57:                                               ; preds = %56
  br label %58

58:                                               ; preds = %57
  br label %59

59:                                               ; preds = %58
  br label %60

60:                                               ; preds = %59
  br label %61

61:                                               ; preds = %60
  %62 = getelementptr inbounds nuw %struct.SDL_PendingCameraEvent, ptr %5, i32 0, i32 2
  %63 = load ptr, ptr %62, align 8
  %64 = load ptr, ptr getelementptr inbounds nuw (%struct.SDL_CameraDriver, ptr @camera_driver, i32 0, i32 6), align 8
  %65 = getelementptr inbounds nuw %struct.SDL_PendingCameraEvent, ptr %64, i32 0, i32 2
  store ptr %63, ptr %65, align 8
  %66 = load ptr, ptr %6, align 8
  store ptr %66, ptr getelementptr inbounds nuw (%struct.SDL_CameraDriver, ptr @camera_driver, i32 0, i32 6), align 8
  %67 = load ptr, ptr getelementptr inbounds nuw (%struct.SDL_CameraDriver, ptr @camera_driver, i32 0, i32 3), align 8
  call void @SDL_UnlockRWLock_REAL(ptr noundef %67)
  br label %68

68:                                               ; preds = %61, %49
  call void @llvm.lifetime.end.p0(i64 4, ptr %7) #7
  call void @llvm.lifetime.end.p0(i64 8, ptr %6) #7
  call void @llvm.lifetime.end.p0(i64 16, ptr %5) #7
  br label %69

69:                                               ; preds = %68, %12
  ret void
}