; Function Attrs: nounwind uwtable
define hidden void @SDL_CameraPermissionOutcome(ptr noundef %0, i1 noundef zeroext %1) local_unnamed_addr #1 {
  %3 = alloca %struct.SDL_PendingCameraEvent, align 8
  %.not = icmp eq ptr %0, null
  br i1 %.not, label %43, label %4

4:                                                ; preds = %2
  call void @llvm.lifetime.start.p0(i64 16, ptr nonnull %3) #11
  %5 = getelementptr inbounds nuw i8, ptr %3, i64 8
  store ptr null, ptr %5, align 8
  %6 = select i1 %1, i32 1, i32 -1
  %7 = getelementptr inbounds nuw i8, ptr %0, i64 20
  %8 = tail call i32 @SDL_AddAtomicInt_REAL(ptr noundef nonnull %7, i32 noundef 1) #11
  %9 = load ptr, ptr %0, align 8
  tail call void @SDL_LockMutex_REAL(ptr noundef %9) #11
  %10 = getelementptr inbounds nuw i8, ptr %0, i64 460
  %11 = load i32, ptr %10, align 4
  %.not20 = icmp eq i32 %11, %6
  br i1 %.not20, label %20, label %12

12:                                               ; preds = %4
  store i32 %6, ptr %10, align 4
  %13 = tail call noalias ptr @SDL_malloc_REAL(i64 noundef 16) #11
  %.not21 = icmp eq ptr %13, null
  br i1 %.not21, label %20, label %14

14:                                               ; preds = %12
  %15 = select i1 %1, i32 5122, i32 5123
  store i32 %15, ptr %13, align 8
  %16 = getelementptr inbounds nuw i8, ptr %0, i64 108
  %17 = load i32, ptr %16, align 4
  %18 = getelementptr inbounds nuw i8, ptr %13, i64 4
  store i32 %17, ptr %18, align 4
  %19 = getelementptr inbounds nuw i8, ptr %13, i64 8
  store ptr null, ptr %19, align 8
  store ptr %13, ptr %5, align 8
  br label %20

20:                                               ; preds = %12, %14, %4
  %21 = phi ptr [ null, %4 ], [ %13, %14 ], [ null, %12 ]
  %.0 = phi ptr [ %3, %4 ], [ %13, %14 ], [ %3, %12 ]
  %22 = load ptr, ptr %0, align 8
  tail call void @SDL_UnlockMutex_REAL(ptr noundef %22) #11
  %23 = tail call i32 @SDL_AddAtomicInt_REAL(ptr noundef nonnull %7, i32 noundef -1) #11
  %24 = icmp eq i32 %23, 1
  br i1 %24, label %25, label %ReleaseCamera.exit

25:                                               ; preds = %20
  %26 = load ptr, ptr getelementptr inbounds nuw (i8, ptr @camera_driver, i64 88), align 8
  tail call void @SDL_LockRWLockForWriting_REAL(ptr noundef %26) #11
  %27 = load ptr, ptr getelementptr inbounds nuw (i8, ptr @camera_driver, i64 96), align 8
  %28 = getelementptr inbounds nuw i8, ptr %0, i64 108
  %29 = load i32, ptr %28, align 4
  %30 = zext i32 %29 to i64
  %31 = inttoptr i64 %30 to ptr
  %32 = tail call zeroext i1 @SDL_RemoveFromHashTable(ptr noundef %27, ptr noundef %31) #11
  br i1 %32, label %33, label %35

33:                                               ; preds = %25
  %34 = tail call i32 @SDL_AddAtomicInt_REAL(ptr noundef nonnull getelementptr inbounds nuw (i8, ptr @camera_driver, i64 128), i32 noundef -1) #11
  br label %35

35:                                               ; preds = %33, %25
  %36 = load ptr, ptr getelementptr inbounds nuw (i8, ptr @camera_driver, i64 88), align 8
  tail call void @SDL_UnlockRWLock_REAL(ptr noundef %36) #11
  br label %ReleaseCamera.exit

ReleaseCamera.exit:                               ; preds = %20, %35
  %.not22 = icmp eq ptr %21, null
  br i1 %.not22, label %42, label %37

37:                                               ; preds = %ReleaseCamera.exit
  %38 = load ptr, ptr getelementptr inbounds nuw (i8, ptr @camera_driver, i64 88), align 8
  tail call void @SDL_LockRWLockForWriting_REAL(ptr noundef %38) #11
  %39 = load ptr, ptr getelementptr inbounds nuw (i8, ptr @camera_driver, i64 120), align 8
  %40 = getelementptr inbounds nuw i8, ptr %39, i64 8
  store ptr %21, ptr %40, align 8
  store ptr %.0, ptr getelementptr inbounds nuw (i8, ptr @camera_driver, i64 120), align 8
  %41 = load ptr, ptr getelementptr inbounds nuw (i8, ptr @camera_driver, i64 88), align 8
  call void @SDL_UnlockRWLock_REAL(ptr noundef %41) #11
  br label %42

42:                                               ; preds = %37, %ReleaseCamera.exit
  call void @llvm.lifetime.end.p0(i64 16, ptr nonnull %3) #11
  br label %43

43:                                               ; preds = %2, %42
  ret void
}